target datalayout = "e-m:e-p270:32:32-p271:32:32-p272:64:64-i64:64-i128:128-f80:128-n8:16:32:64-S128"
target triple = "x86_64-pc-linux-gnu"

%"class.base::FilePath" = type { %"class.std::__cxx11::basic_string" }
%"class.std::__cxx11::basic_string" = type { %"struct.std::__cxx11::basic_string<char>::_Alloc_hider", i64, %union.anon }
%"struct.std::__cxx11::basic_string<char>::_Alloc_hider" = type { ptr }
%union.anon = type { i64, [8 x i8] }
%"class.base::Time" = type { %"class.base::time_internal::TimeBase" }
%"class.base::time_internal::TimeBase" = type { i64 }
%"class.base::File" = type <{ %"class.base::ScopedGeneric", [4 x i8], %"class.base::FilePath", [4 x i8], i32, i8, i8, [6 x i8] }>
%"class.base::ScopedGeneric" = type { %"struct.base::ScopedGeneric<int, base::internal::ScopedFDCloseTraits>::Data" }
%"struct.base::ScopedGeneric<int, base::internal::ScopedFDCloseTraits>::Data" = type { i32 }

; Function Attrs: mustprogress uwtable
define noundef zeroext i1 @_ZN4base9TouchFileERKNS_8FilePathERKNS_4TimeES5_(ptr noundef nonnull align 8 dereferenceable(32) %0, ptr noundef nonnull align 8 dereferenceable(8) %1, ptr noundef nonnull align 8 dereferenceable(8) %2) #0 personality ptr @__gxx_personality_v0 {
  %4 = alloca i1, align 1
  %5 = alloca ptr, align 8
  %6 = alloca ptr, align 8
  %7 = alloca ptr, align 8
  %8 = alloca i32, align 4
  %9 = alloca %"class.base::File", align 8
  %10 = alloca ptr, align 8
  %11 = alloca i32, align 4
  %12 = alloca i32, align 4
  %13 = alloca %"class.base::Time", align 8
  %14 = alloca %"class.base::Time", align 8
  store ptr %0, ptr %5, align 8, !tbaa !3
  store ptr %1, ptr %6, align 8, !tbaa !52
  store ptr %2, ptr %7, align 8, !tbaa !52
  call void @llvm.lifetime.start.p0(i64 4, ptr %8) #14
  store i32 16385, ptr %8, align 4, !tbaa !12
  call void @llvm.lifetime.start.p0(i64 56, ptr %9) #14
  %15 = load ptr, ptr %5, align 8, !tbaa !3
  %16 = load i32, ptr %8, align 4, !tbaa !12
  call void @_ZN4base4FileC1ERKNS_8FilePathEj(ptr noundef nonnull align 8 dereferenceable(50) %9, ptr noundef nonnull align 8 dereferenceable(32) %15, i32 noundef %16)
  %17 = invoke noundef zeroext i1 @_ZNK4base4File7IsValidEv(ptr noundef nonnull align 8 dereferenceable(50) %9)
          to label %18 unwind label %20

18:                                               ; preds = %3
  br i1 %17, label %24, label %19

19:                                               ; preds = %18
  store i1 false, ptr %4, align 1
  store i32 1, ptr %12, align 4
  br label %35

20:                                               ; preds = %24, %3
  %21 = landingpad { ptr, i32 }
          cleanup
  %22 = extractvalue { ptr, i32 } %21, 0
  store ptr %22, ptr %10, align 8
  %23 = extractvalue { ptr, i32 } %21, 1
  store i32 %23, ptr %11, align 4
  call void @_ZN4base4FileD1Ev(ptr noundef nonnull align 8 dereferenceable(50) %9) #14
  call void @llvm.lifetime.end.p0(i64 56, ptr %9) #14
  call void @llvm.lifetime.end.p0(i64 4, ptr %8) #14
  br label %37

24:                                               ; preds = %18
  %25 = load ptr, ptr %6, align 8, !tbaa !52
  call void @llvm.memcpy.p0.p0.i64(ptr align 8 %13, ptr align 8 %25, i64 8, i1 false)
  %26 = load ptr, ptr %7, align 8, !tbaa !52
  call void @llvm.memcpy.p0.p0.i64(ptr align 8 %14, ptr align 8 %26, i64 8, i1 false)
  %27 = getelementptr inbounds nuw %"class.base::Time", ptr %13, i32 0, i32 0
  %28 = getelementptr inbounds nuw %"class.base::time_internal::TimeBase", ptr %27, i32 0, i32 0
  %29 = load i64, ptr %28, align 8
  %30 = getelementptr inbounds nuw %"class.base::Time", ptr %14, i32 0, i32 0
  %31 = getelementptr inbounds nuw %"class.base::time_internal::TimeBase", ptr %30, i32 0, i32 0
  %32 = load i64, ptr %31, align 8
  %33 = invoke noundef zeroext i1 @_ZN4base4File8SetTimesENS_4TimeES1_(ptr noundef nonnull align 8 dereferenceable(50) %9, i64 %29, i64 %32)
          to label %34 unwind label %20

34:                                               ; preds = %24
  store i1 %33, ptr %4, align 1
  store i32 1, ptr %12, align 4
  br label %35

35:                                               ; preds = %34, %19
  call void @_ZN4base4FileD1Ev(ptr noundef nonnull align 8 dereferenceable(50) %9) #14
  call void @llvm.lifetime.end.p0(i64 56, ptr %9) #14
  call void @llvm.lifetime.end.p0(i64 4, ptr %8) #14
  %36 = load i1, ptr %4, align 1
  ret i1 %36

37:                                               ; preds = %20
  %38 = load ptr, ptr %10, align 8
  %39 = load i32, ptr %11, align 4
  %40 = insertvalue { ptr, i32 } poison, ptr %38, 0
  %41 = insertvalue { ptr, i32 } %40, i32 %39, 1
  resume { ptr, i32 } %41
}