; Function Attrs: mustprogress uwtable
define noundef zeroext i1 @_ZN4base9TouchFileERKNS_8FilePathERKNS_4TimeES5_(ptr noundef nonnull align 8 dereferenceable(32) %0, ptr noundef nonnull readonly align 8 captures(none) dereferenceable(8) %1, ptr noundef nonnull readonly align 8 captures(none) dereferenceable(8) %2) local_unnamed_addr #0 personality ptr @__gxx_personality_v0 {
  %4 = alloca %"class.base::File", align 8
  call void @llvm.lifetime.start.p0(i64 56, ptr nonnull %4) #16
  call void @_ZN4base4FileC1ERKNS_8FilePathEj(ptr noundef nonnull align 8 dereferenceable(50) %4, ptr noundef nonnull align 8 dereferenceable(32) %0, i32 noundef 16385)
  %5 = invoke noundef zeroext i1 @_ZNK4base4File7IsValidEv(ptr noundef nonnull align 8 dereferenceable(50) %4)
          to label %6 unwind label %7

6:                                                ; preds = %3
  br i1 %5, label %9, label %11

7:                                                ; preds = %9, %3
  %8 = landingpad { ptr, i32 }
          cleanup
  call void @_ZN4base4FileD1Ev(ptr noundef nonnull align 8 dereferenceable(50) %4) #16
  call void @llvm.lifetime.end.p0(i64 56, ptr nonnull %4) #16
  resume { ptr, i32 } %8

9:                                                ; preds = %6
  %.sroa.01.0.copyload = load i64, ptr %1, align 8
  %.sroa.0.0.copyload = load i64, ptr %2, align 8
  %10 = invoke noundef zeroext i1 @_ZN4base4File8SetTimesENS_4TimeES1_(ptr noundef nonnull align 8 dereferenceable(50) %4, i64 %.sroa.01.0.copyload, i64 %.sroa.0.0.copyload)
          to label %11 unwind label %7

11:                                               ; preds = %9, %6
  %.0 = phi i1 [ false, %6 ], [ %10, %9 ]
  call void @_ZN4base4FileD1Ev(ptr noundef nonnull align 8 dereferenceable(50) %4) #16
  call void @llvm.lifetime.end.p0(i64 56, ptr nonnull %4) #16
  ret i1 %.0
}